target datalayout = "e-m:e-p270:32:32-p271:32:32-p272:64:64-i64:64-i128:128-f80:128-n8:16:32:64-S128"
target triple = "x86_64-pc-linux-gnu"

%struct.resourcemodulestate = type { ptr }
%struct.rusage = type { %struct.timeval, %struct.timeval, %union.anon.0, %union.anon.1, %union.anon.2, %union.anon.3, %union.anon.4, %union.anon.5, %union.anon.6, %union.anon.7, %union.anon.8, %union.anon.9, %union.anon.10, %union.anon.11, %union.anon.12, %union.anon.13 }
%struct.timeval = type { i64, i64 }
%union.anon.0 = type { i64 }
%union.anon.1 = type { i64 }
%union.anon.2 = type { i64 }
%union.anon.3 = type { i64 }
%union.anon.4 = type { i64 }
%union.anon.5 = type { i64 }
%union.anon.6 = type { i64 }
%union.anon.7 = type { i64 }
%union.anon.8 = type { i64 }
%union.anon.9 = type { i64 }
%union.anon.10 = type { i64 }
%union.anon.11 = type { i64 }
%union.anon.12 = type { i64 }
%union.anon.13 = type { i64 }

@PyExc_ValueError = external global ptr, align 8
@.str.7 = private unnamed_addr constant [22 x i8] c"invalid who parameter\00", align 1
@PyExc_OSError = external global ptr, align 8

; Function Attrs: inlinehint nounwind uwtable
define internal void @Py_DECREF(ptr noundef %0) #5 {
  %2 = alloca ptr, align 8
  store ptr %0, ptr %2, align 8, !tbaa !3
  %3 = load ptr, ptr %2, align 8, !tbaa !3
  call void @_Py_DecRef(ptr noundef %3)
  ret void
}

; Function Attrs: inlinehint nounwind uwtable
define internal ptr @get_resource_state(ptr noundef %0) #5 {
  %2 = alloca ptr, align 8
  %3 = alloca ptr, align 8
  store ptr %0, ptr %2, align 8, !tbaa !3
  call void @llvm.lifetime.start.p0(i64 8, ptr %3) #7
  %4 = load ptr, ptr %2, align 8, !tbaa !3
  %5 = call ptr @PyModule_GetState(ptr noundef %4)
  store ptr %5, ptr %3, align 8, !tbaa !8
  %6 = load ptr, ptr %3, align 8, !tbaa !8
  call void @llvm.lifetime.end.p0(i64 8, ptr %3) #7
  ret ptr %6
}

; Function Attrs: nounwind uwtable
define internal ptr @resource_getrusage_impl(ptr noundef %0, i32 noundef %1) #0 {
  %3 = alloca ptr, align 8
  %4 = alloca ptr, align 8
  %5 = alloca i32, align 4
  %6 = alloca %struct.rusage, align 8
  %7 = alloca ptr, align 8
  %8 = alloca i32, align 4
  store ptr %0, ptr %4, align 8, !tbaa !3
  store i32 %1, ptr %5, align 4, !tbaa !12
  call void @llvm.lifetime.start.p0(i64 144, ptr %6) #7
  call void @llvm.lifetime.start.p0(i64 8, ptr %7) #7
  %9 = load i32, ptr %5, align 4, !tbaa !12
  %10 = call i32 @getrusage(i32 noundef %9, ptr noundef %6) #7
  %11 = icmp eq i32 %10, -1
  br i1 %11, label %12, label %21

12:                                               ; preds = %2
  %13 = call ptr @__errno_location() #8
  %14 = load i32, ptr %13, align 4, !tbaa !12
  %15 = icmp eq i32 %14, 22
  br i1 %15, label %16, label %18

16:                                               ; preds = %12
  %17 = load ptr, ptr @PyExc_ValueError, align 8, !tbaa !3
  call void @PyErr_SetString(ptr noundef %17, ptr noundef @.str.7)
  store ptr null, ptr %3, align 8
  store i32 1, ptr %8, align 4
  br label %115

18:                                               ; preds = %12
  %19 = load ptr, ptr @PyExc_OSError, align 8, !tbaa !3
  %20 = call ptr @PyErr_SetFromErrno(ptr noundef %19)
  store ptr null, ptr %3, align 8
  store i32 1, ptr %8, align 4
  br label %115

21:                                               ; preds = %2
  %22 = load ptr, ptr %4, align 8, !tbaa !3
  %23 = call ptr @get_resource_state(ptr noundef %22)
  %24 = getelementptr inbounds nuw %struct.resourcemodulestate, ptr %23, i32 0, i32 0
  %25 = load ptr, ptr %24, align 8, !tbaa !9
  %26 = call ptr @PyStructSequence_New(ptr noundef %25)
  store ptr %26, ptr %7, align 8, !tbaa !3
  %27 = load ptr, ptr %7, align 8, !tbaa !3
  %28 = icmp ne ptr %27, null
  br i1 %28, label %30, label %29

29:                                               ; preds = %21
  store ptr null, ptr %3, align 8
  store i32 1, ptr %8, align 4
  br label %115

30:                                               ; preds = %21
  %31 = load ptr, ptr %7, align 8, !tbaa !3
  %32 = getelementptr inbounds nuw %struct.rusage, ptr %6, i32 0, i32 0
  %33 = getelementptr inbounds nuw %struct.timeval, ptr %32, i32 0, i32 0
  %34 = load i64, ptr %33, align 8, !tbaa !21
  %35 = sitofp i64 %34 to double
  %36 = getelementptr inbounds nuw %struct.rusage, ptr %6, i32 0, i32 0
  %37 = getelementptr inbounds nuw %struct.timeval, ptr %36, i32 0, i32 1
  %38 = load i64, ptr %37, align 8, !tbaa !24
  %39 = sitofp i64 %38 to double
  %40 = call double @llvm.fmuladd.f64(double %39, double 0x3EB0C6F7A0B5ED8D, double %35)
  %41 = call ptr @PyFloat_FromDouble(double noundef %40)
  call void @PyStructSequence_SetItem(ptr noundef %31, i64 noundef 0, ptr noundef %41)
  %42 = load ptr, ptr %7, align 8, !tbaa !3
  %43 = getelementptr inbounds nuw %struct.rusage, ptr %6, i32 0, i32 1
  %44 = getelementptr inbounds nuw %struct.timeval, ptr %43, i32 0, i32 0
  %45 = load i64, ptr %44, align 8, !tbaa !25
  %46 = sitofp i64 %45 to double
  %47 = getelementptr inbounds nuw %struct.rusage, ptr %6, i32 0, i32 1
  %48 = getelementptr inbounds nuw %struct.timeval, ptr %47, i32 0, i32 1
  %49 = load i64, ptr %48, align 8, !tbaa !26
  %50 = sitofp i64 %49 to double
  %51 = call double @llvm.fmuladd.f64(double %50, double 0x3EB0C6F7A0B5ED8D, double %46)
  %52 = call ptr @PyFloat_FromDouble(double noundef %51)
  call void @PyStructSequence_SetItem(ptr noundef %42, i64 noundef 1, ptr noundef %52)
  %53 = load ptr, ptr %7, align 8, !tbaa !3
  %54 = getelementptr inbounds nuw %struct.rusage, ptr %6, i32 0, i32 2
  %55 = load i64, ptr %54, align 8, !tbaa !27
  %56 = call ptr @PyLong_FromLong(i64 noundef %55)
  call void @PyStructSequence_SetItem(ptr noundef %53, i64 noundef 2, ptr noundef %56)
  %57 = load ptr, ptr %7, align 8, !tbaa !3
  %58 = getelementptr inbounds nuw %struct.rusage, ptr %6, i32 0, i32 3
  %59 = load i64, ptr %58, align 8, !tbaa !27
  %60 = call ptr @PyLong_FromLong(i64 noundef %59)
  call void @PyStructSequence_SetItem(ptr noundef %57, i64 noundef 3, ptr noundef %60)
  %61 = load ptr, ptr %7, align 8, !tbaa !3
  %62 = getelementptr inbounds nuw %struct.rusage, ptr %6, i32 0, i32 4
  %63 = load i64, ptr %62, align 8, !tbaa !27
  %64 = call ptr @PyLong_FromLong(i64 noundef %63)
  call void @PyStructSequence_SetItem(ptr noundef %61, i64 noundef 4, ptr noundef %64)
  %65 = load ptr, ptr %7, align 8, !tbaa !3
  %66 = getelementptr inbounds nuw %struct.rusage, ptr %6, i32 0, i32 5
  %67 = load i64, ptr %66, align 8, !tbaa !27
  %68 = call ptr @PyLong_FromLong(i64 noundef %67)
  call void @PyStructSequence_SetItem(ptr noundef %65, i64 noundef 5, ptr noundef %68)
  %69 = load ptr, ptr %7, align 8, !tbaa !3
  %70 = getelementptr inbounds nuw %struct.rusage, ptr %6, i32 0, i32 6
  %71 = load i64, ptr %70, align 8, !tbaa !27
  %72 = call ptr @PyLong_FromLong(i64 noundef %71)
  call void @PyStructSequence_SetItem(ptr noundef %69, i64 noundef 6, ptr noundef %72)
  %73 = load ptr, ptr %7, align 8, !tbaa !3
  %74 = getelementptr inbounds nuw %struct.rusage, ptr %6, i32 0, i32 7
  %75 = load i64, ptr %74, align 8, !tbaa !27
  %76 = call ptr @PyLong_FromLong(i64 noundef %75)
  call void @PyStructSequence_SetItem(ptr noundef %73, i64 noundef 7, ptr noundef %76)
  %77 = load ptr, ptr %7, align 8, !tbaa !3
  %78 = getelementptr inbounds nuw %struct.rusage, ptr %6, i32 0, i32 8
  %79 = load i64, ptr %78, align 8, !tbaa !27
  %80 = call ptr @PyLong_FromLong(i64 noundef %79)
  call void @PyStructSequence_SetItem(ptr noundef %77, i64 noundef 8, ptr noundef %80)
  %81 = load ptr, ptr %7, align 8, !tbaa !3
  %82 = getelementptr inbounds nuw %struct.rusage, ptr %6, i32 0, i32 9
  %83 = load i64, ptr %82, align 8, !tbaa !27
  %84 = call ptr @PyLong_FromLong(i64 noundef %83)
  call void @PyStructSequence_SetItem(ptr noundef %81, i64 noundef 9, ptr noundef %84)
  %85 = load ptr, ptr %7, align 8, !tbaa !3
  %86 = getelementptr inbounds nuw %struct.rusage, ptr %6, i32 0, i32 10
  %87 = load i64, ptr %86, align 8, !tbaa !27
  %88 = call ptr @PyLong_FromLong(i64 noundef %87)
  call void @PyStructSequence_SetItem(ptr noundef %85, i64 noundef 10, ptr noundef %88)
  %89 = load ptr, ptr %7, align 8, !tbaa !3
  %90 = getelementptr inbounds nuw %struct.rusage, ptr %6, i32 0, i32 11
  %91 = load i64, ptr %90, align 8, !tbaa !27
  %92 = call ptr @PyLong_FromLong(i64 noundef %91)
  call void @PyStructSequence_SetItem(ptr noundef %89, i64 noundef 11, ptr noundef %92)
  %93 = load ptr, ptr %7, align 8, !tbaa !3
  %94 = getelementptr inbounds nuw %struct.rusage, ptr %6, i32 0, i32 12
  %95 = load i64, ptr %94, align 8, !tbaa !27
  %96 = call ptr @PyLong_FromLong(i64 noundef %95)
  call void @PyStructSequence_SetItem(ptr noundef %93, i64 noundef 12, ptr noundef %96)
  %97 = load ptr, ptr %7, align 8, !tbaa !3
  %98 = getelementptr inbounds nuw %struct.rusage, ptr %6, i32 0, i32 13
  %99 = load i64, ptr %98, align 8, !tbaa !27
  %100 = call ptr @PyLong_FromLong(i64 noundef %99)
  call void @PyStructSequence_SetItem(ptr noundef %97, i64 noundef 13, ptr noundef %100)
  %101 = load ptr, ptr %7, align 8, !tbaa !3
  %102 = getelementptr inbounds nuw %struct.rusage, ptr %6, i32 0, i32 14
  %103 = load i64, ptr %102, align 8, !tbaa !27
  %104 = call ptr @PyLong_FromLong(i64 noundef %103)
  call void @PyStructSequence_SetItem(ptr noundef %101, i64 noundef 14, ptr noundef %104)
  %105 = load ptr, ptr %7, align 8, !tbaa !3
  %106 = getelementptr inbounds nuw %struct.rusage, ptr %6, i32 0, i32 15
  %107 = load i64, ptr %106, align 8, !tbaa !27
  %108 = call ptr @PyLong_FromLong(i64 noundef %107)
  call void @PyStructSequence_SetItem(ptr noundef %105, i64 noundef 15, ptr noundef %108)
  %109 = call ptr @PyErr_Occurred()
  %110 = icmp ne ptr %109, null
  br i1 %110, label %111, label %113

111:                                              ; preds = %30
  %112 = load ptr, ptr %7, align 8, !tbaa !3
  call void @Py_DECREF(ptr noundef %112)
  store ptr null, ptr %3, align 8
  store i32 1, ptr %8, align 4
  br label %115

113:                                              ; preds = %30
  %114 = load ptr, ptr %7, align 8, !tbaa !3
  store ptr %114, ptr %3, align 8
  store i32 1, ptr %8, align 4
  br label %115

115:                                              ; preds = %113, %111, %29, %18, %16
  call void @llvm.lifetime.end.p0(i64 8, ptr %7) #7
  call void @llvm.lifetime.end.p0(i64 144, ptr %6) #7
  %116 = load ptr, ptr %3, align 8
  ret ptr %116
}