; Function Attrs: nounwind uwtable
define internal fastcc ptr @resource_getrusage_impl(ptr noundef %0, i32 noundef %1) unnamed_addr #0 {
  %3 = alloca %struct.rusage, align 8
  call void @llvm.lifetime.start.p0(i64 144, ptr nonnull %3) #6
  %4 = call i32 @getrusage(i32 noundef %1, ptr noundef nonnull %3) #6
  %5 = icmp eq i32 %4, -1
  br i1 %5, label %6, label %15

6:                                                ; preds = %2
  %7 = tail call ptr @__errno_location() #7
  %8 = load i32, ptr %7, align 4, !tbaa !12
  %9 = icmp eq i32 %8, 22
  br i1 %9, label %10, label %12

10:                                               ; preds = %6
  %11 = load ptr, ptr @PyExc_ValueError, align 8, !tbaa !10
  call void @PyErr_SetString(ptr noundef %11, ptr noundef nonnull @.str.7) #6
  br label %79

12:                                               ; preds = %6
  %13 = load ptr, ptr @PyExc_OSError, align 8, !tbaa !10
  %14 = call ptr @PyErr_SetFromErrno(ptr noundef %13) #6
  br label %79

15:                                               ; preds = %2
  %16 = call ptr @PyModule_GetState(ptr noundef %0) #6
  %17 = load ptr, ptr %16, align 8, !tbaa !3
  %18 = call ptr @PyStructSequence_New(ptr noundef %17) #6
  %.not = icmp eq ptr %18, null
  br i1 %.not, label %79, label %19

19:                                               ; preds = %15
  %20 = load i64, ptr %3, align 8, !tbaa !14
  %21 = sitofp i64 %20 to double
  %22 = getelementptr inbounds nuw i8, ptr %3, i64 8
  %23 = load i64, ptr %22, align 8, !tbaa !18
  %24 = sitofp i64 %23 to double
  %25 = call double @llvm.fmuladd.f64(double %24, double 0x3EB0C6F7A0B5ED8D, double %21)
  %26 = call ptr @PyFloat_FromDouble(double noundef %25) #6
  call void @PyStructSequence_SetItem(ptr noundef nonnull %18, i64 noundef 0, ptr noundef %26) #6
  %27 = getelementptr inbounds nuw i8, ptr %3, i64 16
  %28 = load i64, ptr %27, align 8, !tbaa !19
  %29 = sitofp i64 %28 to double
  %30 = getelementptr inbounds nuw i8, ptr %3, i64 24
  %31 = load i64, ptr %30, align 8, !tbaa !20
  %32 = sitofp i64 %31 to double
  %33 = call double @llvm.fmuladd.f64(double %32, double 0x3EB0C6F7A0B5ED8D, double %29)
  %34 = call ptr @PyFloat_FromDouble(double noundef %33) #6
  call void @PyStructSequence_SetItem(ptr noundef nonnull %18, i64 noundef 1, ptr noundef %34) #6
  %35 = getelementptr inbounds nuw i8, ptr %3, i64 32
  %36 = load i64, ptr %35, align 8, !tbaa !21
  %37 = call ptr @PyLong_FromLong(i64 noundef %36) #6
  call void @PyStructSequence_SetItem(ptr noundef nonnull %18, i64 noundef 2, ptr noundef %37) #6
  %38 = getelementptr inbounds nuw i8, ptr %3, i64 40
  %39 = load i64, ptr %38, align 8, !tbaa !21
  %40 = call ptr @PyLong_FromLong(i64 noundef %39) #6
  call void @PyStructSequence_SetItem(ptr noundef nonnull %18, i64 noundef 3, ptr noundef %40) #6
  %41 = getelementptr inbounds nuw i8, ptr %3, i64 48
  %42 = load i64, ptr %41, align 8, !tbaa !21
  %43 = call ptr @PyLong_FromLong(i64 noundef %42) #6
  call void @PyStructSequence_SetItem(ptr noundef nonnull %18, i64 noundef 4, ptr noundef %43) #6
  %44 = getelementptr inbounds nuw i8, ptr %3, i64 56
  %45 = load i64, ptr %44, align 8, !tbaa !21
  %46 = call ptr @PyLong_FromLong(i64 noundef %45) #6
  call void @PyStructSequence_SetItem(ptr noundef nonnull %18, i64 noundef 5, ptr noundef %46) #6
  %47 = getelementptr inbounds nuw i8, ptr %3, i64 64
  %48 = load i64, ptr %47, align 8, !tbaa !21
  %49 = call ptr @PyLong_FromLong(i64 noundef %48) #6
  call void @PyStructSequence_SetItem(ptr noundef nonnull %18, i64 noundef 6, ptr noundef %49) #6
  %50 = getelementptr inbounds nuw i8, ptr %3, i64 72
  %51 = load i64, ptr %50, align 8, !tbaa !21
  %52 = call ptr @PyLong_FromLong(i64 noundef %51) #6
  call void @PyStructSequence_SetItem(ptr noundef nonnull %18, i64 noundef 7, ptr noundef %52) #6
  %53 = getelementptr inbounds nuw i8, ptr %3, i64 80
  %54 = load i64, ptr %53, align 8, !tbaa !21
  %55 = call ptr @PyLong_FromLong(i64 noundef %54) #6
  call void @PyStructSequence_SetItem(ptr noundef nonnull %18, i64 noundef 8, ptr noundef %55) #6
  %56 = getelementptr inbounds nuw i8, ptr %3, i64 88
  %57 = load i64, ptr %56, align 8, !tbaa !21
  %58 = call ptr @PyLong_FromLong(i64 noundef %57) #6
  call void @PyStructSequence_SetItem(ptr noundef nonnull %18, i64 noundef 9, ptr noundef %58) #6
  %59 = getelementptr inbounds nuw i8, ptr %3, i64 96
  %60 = load i64, ptr %59, align 8, !tbaa !21
  %61 = call ptr @PyLong_FromLong(i64 noundef %60) #6
  call void @PyStructSequence_SetItem(ptr noundef nonnull %18, i64 noundef 10, ptr noundef %61) #6
  %62 = getelementptr inbounds nuw i8, ptr %3, i64 104
  %63 = load i64, ptr %62, align 8, !tbaa !21
  %64 = call ptr @PyLong_FromLong(i64 noundef %63) #6
  call void @PyStructSequence_SetItem(ptr noundef nonnull %18, i64 noundef 11, ptr noundef %64) #6
  %65 = getelementptr inbounds nuw i8, ptr %3, i64 112
  %66 = load i64, ptr %65, align 8, !tbaa !21
  %67 = call ptr @PyLong_FromLong(i64 noundef %66) #6
  call void @PyStructSequence_SetItem(ptr noundef nonnull %18, i64 noundef 12, ptr noundef %67) #6
  %68 = getelementptr inbounds nuw i8, ptr %3, i64 120
  %69 = load i64, ptr %68, align 8, !tbaa !21
  %70 = call ptr @PyLong_FromLong(i64 noundef %69) #6
  call void @PyStructSequence_SetItem(ptr noundef nonnull %18, i64 noundef 13, ptr noundef %70) #6
  %71 = getelementptr inbounds nuw i8, ptr %3, i64 128
  %72 = load i64, ptr %71, align 8, !tbaa !21
  %73 = call ptr @PyLong_FromLong(i64 noundef %72) #6
  call void @PyStructSequence_SetItem(ptr noundef nonnull %18, i64 noundef 14, ptr noundef %73) #6
  %74 = getelementptr inbounds nuw i8, ptr %3, i64 136
  %75 = load i64, ptr %74, align 8, !tbaa !21
  %76 = call ptr @PyLong_FromLong(i64 noundef %75) #6
  call void @PyStructSequence_SetItem(ptr noundef nonnull %18, i64 noundef 15, ptr noundef %76) #6
  %77 = call ptr @PyErr_Occurred() #6
  %.not22 = icmp eq ptr %77, null
  br i1 %.not22, label %79, label %78

78:                                               ; preds = %19
  call void @_Py_DecRef(ptr noundef nonnull %18) #6
  br label %79

79:                                               ; preds = %19, %15, %78, %12, %10
  %.0 = phi ptr [ null, %10 ], [ null, %12 ], [ null, %78 ], [ null, %15 ], [ %18, %19 ]
  call void @llvm.lifetime.end.p0(i64 144, ptr nonnull %3) #6
  ret ptr %.0
}